; Function Attrs: mustprogress nofree norecurse nosync nounwind memory(argmem: readwrite) uwtable
define noundef nonnull align 8 dereferenceable(32) ptr @_ZN5arrow15BasicDecimal256mIERKS0_(ptr noundef nonnull returned align 8 captures(ret: address, provenance) dereferenceable(32) %0, ptr noundef nonnull readonly align 8 captures(none) dereferenceable(32) %1) local_unnamed_addr #8 align 2 {
  %3 = alloca %"class.arrow::BasicDecimal256", align 8
  call void @llvm.memcpy.p0.p0.i64(ptr noundef nonnull align 8 dereferenceable(32) %3, ptr noundef nonnull readonly align 8 dereferenceable(32) %1, i64 32, i1 false)
  br label %4

4:                                                ; preds = %4, %2
  %.010.i.i = phi i64 [ 1, %2 ], [ %11, %4 ]
  %.089.i.i = phi i64 [ 0, %2 ], [ %12, %4 ]
  %5 = getelementptr inbounds nuw [4 x i64], ptr %3, i64 0, i64 %.089.i.i
  %6 = load i64, ptr %5, align 8, !tbaa !7
  %7 = xor i64 %6, -1
  %8 = add i64 %.010.i.i, %7
  store i64 %8, ptr %5, align 8, !tbaa !7
  %9 = icmp eq i64 %8, 0
  %10 = and i64 %.010.i.i, 1
  %11 = select i1 %9, i64 %10, i64 0
  %12 = add nuw nsw i64 %.089.i.i, 1
  %exitcond.not.i.i = icmp eq i64 %12, 4
  br i1 %exitcond.not.i.i, label %_ZN5arrowngERKNS_15BasicDecimal256E.exit, label %4, !llvm.loop !29

_ZN5arrowngERKNS_15BasicDecimal256E.exit:         ; preds = %4, %_ZN5arrowngERKNS_15BasicDecimal256E.exit
  %.021.i = phi i64 [ %.2.i, %_ZN5arrowngERKNS_15BasicDecimal256E.exit ], [ 0, %4 ]
  %.01620.i = phi i64 [ %22, %_ZN5arrowngERKNS_15BasicDecimal256E.exit ], [ 0, %4 ]
  %13 = getelementptr inbounds nuw [4 x i64], ptr %3, i64 0, i64 %.01620.i
  %14 = load i64, ptr %13, align 8, !tbaa !7
  %15 = add i64 %14, %.021.i
  %16 = icmp ult i64 %15, %14
  %spec.select.i = zext i1 %16 to i64
  %17 = getelementptr inbounds nuw [4 x i64], ptr %0, i64 0, i64 %.01620.i
  %18 = load i64, ptr %17, align 8, !tbaa !7
  %19 = add i64 %15, %18
  %20 = icmp ult i64 %19, %18
  %21 = select i1 %16, i64 2, i64 1
  %.2.i = select i1 %20, i64 %21, i64 %spec.select.i
  store i64 %19, ptr %17, align 8, !tbaa !7
  %22 = add nuw nsw i64 %.01620.i, 1
  %exitcond.not.i = icmp eq i64 %22, 4
  br i1 %exitcond.not.i, label %_ZN5arrow15BasicDecimal256pLERKS0_.exit, label %_ZN5arrowngERKNS_15BasicDecimal256E.exit, !llvm.loop !30

_ZN5arrow15BasicDecimal256pLERKS0_.exit:          ; preds = %_ZN5arrowngERKNS_15BasicDecimal256E.exit
  ret ptr %0
}